; ModuleID = '14/813.c'
source_filename = "14/813.c"
target datalayout = "e-m:e-p270:32:32-p271:32:32-p272:64:64-i64:64-f80:128-n8:16:32:64-S128"
target triple = "x86_64-pc-linux-gnu"

%struct.Student = type { i32, i32, i32, i32 }

@.str = private unnamed_addr constant [3 x i8] c"%d\00", align 1
@.str.1 = private unnamed_addr constant [7 x i8] c"%d %d\0A\00", align 1

; Function Attrs: noinline nounwind uwtable
define dso_local i32 @main() #0 {
  %1 = alloca i32, align 4
  %2 = alloca i32, align 4
  %3 = alloca i32, align 4
  %4 = alloca i32, align 4
  %5 = alloca i32, align 4
  %6 = alloca [100000 x %struct.Student], align 16
  %7 = alloca %struct.Student, align 4
  store i32 0, i32* %1, align 4
  %8 = call i32 (i8*, ...) @__isoc99_scanf(i8* getelementptr inbounds ([3 x i8], [3 x i8]* @.str, i64 0, i64 0), i32* %2)
  store i32 0, i32* %3, align 4
  br label %9

9:                                                ; preds = %44, %0
  %10 = load i32, i32* %3, align 4
  %11 = load i32, i32* %2, align 4
  %12 = icmp slt i32 %10, %11
  br i1 %12, label %13, label %47

13:                                               ; preds = %9
  %14 = load i32, i32* %3, align 4
  %15 = sext i32 %14 to i64
  %16 = getelementptr inbounds [100000 x %struct.Student], [100000 x %struct.Student]* %6, i64 0, i64 %15
  %17 = getelementptr inbounds %struct.Student, %struct.Student* %16, i32 0, i32 0
  %18 = call i32 (i8*, ...) @__isoc99_scanf(i8* getelementptr inbounds ([3 x i8], [3 x i8]* @.str, i64 0, i64 0), i32* %17)
  %19 = load i32, i32* %3, align 4
  %20 = sext i32 %19 to i64
  %21 = getelementptr inbounds [100000 x %struct.Student], [100000 x %struct.Student]* %6, i64 0, i64 %20
  %22 = getelementptr inbounds %struct.Student, %struct.Student* %21, i32 0, i32 1
  %23 = call i32 (i8*, ...) @__isoc99_scanf(i8* getelementptr inbounds ([3 x i8], [3 x i8]* @.str, i64 0, i64 0), i32* %22)
  %24 = load i32, i32* %3, align 4
  %25 = sext i32 %24 to i64
  %26 = getelementptr inbounds [100000 x %struct.Student], [100000 x %struct.Student]* %6, i64 0, i64 %25
  %27 = getelementptr inbounds %struct.Student, %struct.Student* %26, i32 0, i32 2
  %28 = call i32 (i8*, ...) @__isoc99_scanf(i8* getelementptr inbounds ([3 x i8], [3 x i8]* @.str, i64 0, i64 0), i32* %27)
  %29 = load i32, i32* %3, align 4
  %30 = sext i32 %29 to i64
  %31 = getelementptr inbounds [100000 x %struct.Student], [100000 x %struct.Student]* %6, i64 0, i64 %30
  %32 = getelementptr inbounds %struct.Student, %struct.Student* %31, i32 0, i32 1
  %33 = load i32, i32* %32, align 4
  %34 = load i32, i32* %3, align 4
  %35 = sext i32 %34 to i64
  %36 = getelementptr inbounds [100000 x %struct.Student], [100000 x %struct.Student]* %6, i64 0, i64 %35
  %37 = getelementptr inbounds %struct.Student, %struct.Student* %36, i32 0, i32 2
  %38 = load i32, i32* %37, align 8
  %39 = add nsw i32 %33, %38
  %40 = load i32, i32* %3, align 4
  %41 = sext i32 %40 to i64
  %42 = getelementptr inbounds [100000 x %struct.Student], [100000 x %struct.Student]* %6, i64 0, i64 %41
  %43 = getelementptr inbounds %struct.Student, %struct.Student* %42, i32 0, i32 3
  store i32 %39, i32* %43, align 4
  br label %44

44:                                               ; preds = %13
  %45 = load i32, i32* %3, align 4
  %46 = add nsw i32 %45, 1
  store i32 %46, i32* %3, align 4
  br label %9

47:                                               ; preds = %9
  store i32 0, i32* %3, align 4
  br label %48

48:                                               ; preds = %101, %47
  %49 = load i32, i32* %3, align 4
  %50 = icmp slt i32 %49, 3
  br i1 %50, label %51, label %104

51:                                               ; preds = %48
  %52 = load i32, i32* %3, align 4
  store i32 %52, i32* %4, align 4
  %53 = load i32, i32* %3, align 4
  %54 = add nsw i32 %53, 1
  store i32 %54, i32* %5, align 4
  br label %55

55:                                               ; preds = %74, %51
  %56 = load i32, i32* %5, align 4
  %57 = load i32, i32* %2, align 4
  %58 = icmp slt i32 %56, %57
  br i1 %58, label %59, label %77

59:                                               ; preds = %55
  %60 = load i32, i32* %5, align 4
  %61 = sext i32 %60 to i64
  %62 = getelementptr inbounds [100000 x %struct.Student], [100000 x %struct.Student]* %6, i64 0, i64 %61
  %63 = getelementptr inbounds %struct.Student, %struct.Student* %62, i32 0, i32 3
  %64 = load i32, i32* %63, align 4
  %65 = load i32, i32* %4, align 4
  %66 = sext i32 %65 to i64
  %67 = getelementptr inbounds [100000 x %struct.Student], [100000 x %struct.Student]* %6, i64 0, i64 %66
  %68 = getelementptr inbounds %struct.Student, %struct.Student* %67, i32 0, i32 3
  %69 = load i32, i32* %68, align 4
  %70 = icmp sgt i32 %64, %69
  br i1 %70, label %71, label %73

71:                                               ; preds = %59
  %72 = load i32, i32* %5, align 4
  store i32 %72, i32* %4, align 4
  br label %73

73:                                               ; preds = %71, %59
  br label %74

74:                                               ; preds = %73
  %75 = load i32, i32* %5, align 4
  %76 = add nsw i32 %75, 1
  store i32 %76, i32* %5, align 4
  br label %55

77:                                               ; preds = %55
  %78 = load i32, i32* %4, align 4
  %79 = load i32, i32* %3, align 4
  %80 = icmp ne i32 %78, %79
  br i1 %80, label %81, label %100

81:                                               ; preds = %77
  %82 = load i32, i32* %3, align 4
  %83 = sext i32 %82 to i64
  %84 = getelementptr inbounds [100000 x %struct.Student], [100000 x %struct.Student]* %6, i64 0, i64 %83
  %85 = bitcast %struct.Student* %7 to i8*
  %86 = bitcast %struct.Student* %84 to i8*
  call void @llvm.memcpy.p0i8.p0i8.i64(i8* align 4 %85, i8* align 16 %86, i64 16, i1 false)
  %87 = load i32, i32* %3, align 4
  %88 = sext i32 %87 to i64
  %89 = getelementptr inbounds [100000 x %struct.Student], [100000 x %struct.Student]* %6, i64 0, i64 %88
  %90 = load i32, i32* %4, align 4
  %91 = sext i32 %90 to i64
  %92 = getelementptr inbounds [100000 x %struct.Student], [100000 x %struct.Student]* %6, i64 0, i64 %91
  %93 = bitcast %struct.Student* %89 to i8*
  %94 = bitcast %struct.Student* %92 to i8*
  call void @llvm.memcpy.p0i8.p0i8.i64(i8* align 16 %93, i8* align 16 %94, i64 16, i1 false)
  %95 = load i32, i32* %4, align 4
  %96 = sext i32 %95 to i64
  %97 = getelementptr inbounds [100000 x %struct.Student], [100000 x %struct.Student]* %6, i64 0, i64 %96
  %98 = bitcast %struct.Student* %97 to i8*
  %99 = bitcast %struct.Student* %7 to i8*
  call void @llvm.memcpy.p0i8.p0i8.i64(i8* align 16 %98, i8* align 4 %99, i64 16, i1 false)
  br label %100

100:                                              ; preds = %81, %77
  br label %101

101:                                              ; preds = %100
  %102 = load i32, i32* %3, align 4
  %103 = add nsw i32 %102, 1
  store i32 %103, i32* %3, align 4
  br label %48

104:                                              ; preds = %48
  store i32 0, i32* %3, align 4
  br label %105

105:                                              ; preds = %120, %104
  %106 = load i32, i32* %3, align 4
  %107 = icmp slt i32 %106, 3
  br i1 %107, label %108, label %123

108:                                              ; preds = %105
  %109 = load i32, i32* %3, align 4
  %110 = sext i32 %109 to i64
  %111 = getelementptr inbounds [100000 x %struct.Student], [100000 x %struct.Student]* %6, i64 0, i64 %110
  %112 = getelementptr inbounds %struct.Student, %struct.Student* %111, i32 0, i32 0
  %113 = load i32, i32* %112, align 16
  %114 = load i32, i32* %3, align 4
  %115 = sext i32 %114 to i64
  %116 = getelementptr inbounds [100000 x %struct.Student], [100000 x %struct.Student]* %6, i64 0, i64 %115
  %117 = getelementptr inbounds %struct.Student, %struct.Student* %116, i32 0, i32 3
  %118 = load i32, i32* %117, align 4
  %119 = call i32 (i8*, ...) @printf(i8* getelementptr inbounds ([7 x i8], [7 x i8]* @.str.1, i64 0, i64 0), i32 %113, i32 %118)
  br label %120

120:                                              ; preds = %108
  %121 = load i32, i32* %3, align 4
  %122 = add nsw i32 %121, 1
  store i32 %122, i32* %3, align 4
  br label %105

123:                                              ; preds = %105
  ret i32 0
}

declare dso_local i32 @__isoc99_scanf(i8*, ...) #1

; Function Attrs: argmemonly nounwind willreturn
declare void @llvm.memcpy.p0i8.p0i8.i64(i8* noalias nocapture writeonly, i8* noalias nocapture readonly, i64, i1 immarg) #2

declare dso_local i32 @printf(i8*, ...) #1


!llvm.module.flags = !{!0}
!llvm.ident = !{!1}

!0 = !{i32 1, !"wchar_size", i32 4}
!1 = !{!"clang version 10.0.0-4ubuntu1 "}
